; ModuleID = '46/449.c'
source_filename = "46/449.c"
target datalayout = "e-m:e-p270:32:32-p271:32:32-p272:64:64-i64:64-f80:128-n8:16:32:64-S128"
target triple = "x86_64-pc-linux-gnu"

@.str = private unnamed_addr constant [6 x i8] c"%d %d\00", align 1
@.str.1 = private unnamed_addr constant [3 x i8] c"%d\00", align 1
@.str.2 = private unnamed_addr constant [4 x i8] c"%d\0A\00", align 1

; Function Attrs: noinline nounwind uwtable
define dso_local i32 @main() #0 {
  %1 = alloca i32, align 4
  %2 = alloca i32, align 4
  %3 = alloca i32, align 4
  %4 = alloca [100 x [100 x i32]], align 16
  %5 = alloca i32, align 4
  %6 = alloca i32, align 4
  %7 = alloca i32, align 4
  %8 = alloca i32, align 4
  %9 = alloca i32, align 4
  %10 = alloca i32, align 4
  %11 = alloca i32, align 4
  %12 = alloca i32, align 4
  store i32 0, i32* %1, align 4
  %13 = call i32 (i8*, ...) @__isoc99_scanf(i8* getelementptr inbounds ([6 x i8], [6 x i8]* @.str, i64 0, i64 0), i32* %2, i32* %3)
  store i32 0, i32* %5, align 4
  br label %14

14:                                               ; preds = %34, %0
  %15 = load i32, i32* %5, align 4
  %16 = load i32, i32* %2, align 4
  %17 = icmp slt i32 %15, %16
  br i1 %17, label %18, label %37

18:                                               ; preds = %14
  store i32 0, i32* %6, align 4
  br label %19

19:                                               ; preds = %31, %18
  %20 = load i32, i32* %6, align 4
  %21 = load i32, i32* %3, align 4
  %22 = icmp slt i32 %20, %21
  br i1 %22, label %23, label %34

23:                                               ; preds = %19
  %24 = load i32, i32* %5, align 4
  %25 = sext i32 %24 to i64
  %26 = getelementptr inbounds [100 x [100 x i32]], [100 x [100 x i32]]* %4, i64 0, i64 %25
  %27 = load i32, i32* %6, align 4
  %28 = sext i32 %27 to i64
  %29 = getelementptr inbounds [100 x i32], [100 x i32]* %26, i64 0, i64 %28
  %30 = call i32 (i8*, ...) @__isoc99_scanf(i8* getelementptr inbounds ([3 x i8], [3 x i8]* @.str.1, i64 0, i64 0), i32* %29)
  br label %31

31:                                               ; preds = %23
  %32 = load i32, i32* %6, align 4
  %33 = add nsw i32 %32, 1
  store i32 %33, i32* %6, align 4
  br label %19

34:                                               ; preds = %19
  %35 = load i32, i32* %5, align 4
  %36 = add nsw i32 %35, 1
  store i32 %36, i32* %5, align 4
  br label %14

37:                                               ; preds = %14
  store i32 0, i32* %8, align 4
  store i32 0, i32* %7, align 4
  %38 = load i32, i32* %2, align 4
  %39 = sub nsw i32 %38, 1
  store i32 %39, i32* %9, align 4
  %40 = load i32, i32* %3, align 4
  %41 = sub nsw i32 %40, 1
  store i32 %41, i32* %10, align 4
  br label %42

42:                                               ; preds = %124, %37
  %43 = load i32, i32* %7, align 4
  %44 = load i32, i32* %9, align 4
  %45 = icmp slt i32 %43, %44
  br i1 %45, label %46, label %50

46:                                               ; preds = %42
  %47 = load i32, i32* %8, align 4
  %48 = load i32, i32* %10, align 4
  %49 = icmp slt i32 %47, %48
  br label %50

50:                                               ; preds = %46, %42
  %51 = phi i1 [ false, %42 ], [ %49, %46 ]
  br i1 %51, label %52, label %133

52:                                               ; preds = %50
  %53 = load i32, i32* %8, align 4
  store i32 %53, i32* %12, align 4
  br label %54

54:                                               ; preds = %67, %52
  %55 = load i32, i32* %12, align 4
  %56 = load i32, i32* %10, align 4
  %57 = icmp slt i32 %55, %56
  br i1 %57, label %58, label %70

58:                                               ; preds = %54
  %59 = load i32, i32* %7, align 4
  %60 = sext i32 %59 to i64
  %61 = getelementptr inbounds [100 x [100 x i32]], [100 x [100 x i32]]* %4, i64 0, i64 %60
  %62 = load i32, i32* %12, align 4
  %63 = sext i32 %62 to i64
  %64 = getelementptr inbounds [100 x i32], [100 x i32]* %61, i64 0, i64 %63
  %65 = load i32, i32* %64, align 4
  %66 = call i32 (i8*, ...) @printf(i8* getelementptr inbounds ([4 x i8], [4 x i8]* @.str.2, i64 0, i64 0), i32 %65)
  br label %67

67:                                               ; preds = %58
  %68 = load i32, i32* %12, align 4
  %69 = add nsw i32 %68, 1
  store i32 %69, i32* %12, align 4
  br label %54

70:                                               ; preds = %54
  %71 = load i32, i32* %7, align 4
  store i32 %71, i32* %11, align 4
  br label %72

72:                                               ; preds = %85, %70
  %73 = load i32, i32* %11, align 4
  %74 = load i32, i32* %9, align 4
  %75 = icmp slt i32 %73, %74
  br i1 %75, label %76, label %88

76:                                               ; preds = %72
  %77 = load i32, i32* %11, align 4
  %78 = sext i32 %77 to i64
  %79 = getelementptr inbounds [100 x [100 x i32]], [100 x [100 x i32]]* %4, i64 0, i64 %78
  %80 = load i32, i32* %10, align 4
  %81 = sext i32 %80 to i64
  %82 = getelementptr inbounds [100 x i32], [100 x i32]* %79, i64 0, i64 %81
  %83 = load i32, i32* %82, align 4
  %84 = call i32 (i8*, ...) @printf(i8* getelementptr inbounds ([4 x i8], [4 x i8]* @.str.2, i64 0, i64 0), i32 %83)
  br label %85

85:                                               ; preds = %76
  %86 = load i32, i32* %11, align 4
  %87 = add nsw i32 %86, 1
  store i32 %87, i32* %11, align 4
  br label %72

88:                                               ; preds = %72
  %89 = load i32, i32* %10, align 4
  store i32 %89, i32* %12, align 4
  br label %90

90:                                               ; preds = %103, %88
  %91 = load i32, i32* %12, align 4
  %92 = load i32, i32* %8, align 4
  %93 = icmp sgt i32 %91, %92
  br i1 %93, label %94, label %106

94:                                               ; preds = %90
  %95 = load i32, i32* %9, align 4
  %96 = sext i32 %95 to i64
  %97 = getelementptr inbounds [100 x [100 x i32]], [100 x [100 x i32]]* %4, i64 0, i64 %96
  %98 = load i32, i32* %12, align 4
  %99 = sext i32 %98 to i64
  %100 = getelementptr inbounds [100 x i32], [100 x i32]* %97, i64 0, i64 %99
  %101 = load i32, i32* %100, align 4
  %102 = call i32 (i8*, ...) @printf(i8* getelementptr inbounds ([4 x i8], [4 x i8]* @.str.2, i64 0, i64 0), i32 %101)
  br label %103

103:                                              ; preds = %94
  %104 = load i32, i32* %12, align 4
  %105 = add nsw i32 %104, -1
  store i32 %105, i32* %12, align 4
  br label %90

106:                                              ; preds = %90
  %107 = load i32, i32* %9, align 4
  store i32 %107, i32* %11, align 4
  br label %108

108:                                              ; preds = %121, %106
  %109 = load i32, i32* %11, align 4
  %110 = load i32, i32* %7, align 4
  %111 = icmp sgt i32 %109, %110
  br i1 %111, label %112, label %124

112:                                              ; preds = %108
  %113 = load i32, i32* %11, align 4
  %114 = sext i32 %113 to i64
  %115 = getelementptr inbounds [100 x [100 x i32]], [100 x [100 x i32]]* %4, i64 0, i64 %114
  %116 = load i32, i32* %8, align 4
  %117 = sext i32 %116 to i64
  %118 = getelementptr inbounds [100 x i32], [100 x i32]* %115, i64 0, i64 %117
  %119 = load i32, i32* %118, align 4
  %120 = call i32 (i8*, ...) @printf(i8* getelementptr inbounds ([4 x i8], [4 x i8]* @.str.2, i64 0, i64 0), i32 %119)
  br label %121

121:                                              ; preds = %112
  %122 = load i32, i32* %11, align 4
  %123 = add nsw i32 %122, -1
  store i32 %123, i32* %11, align 4
  br label %108

124:                                              ; preds = %108
  %125 = load i32, i32* %7, align 4
  %126 = add nsw i32 %125, 1
  store i32 %126, i32* %7, align 4
  %127 = load i32, i32* %8, align 4
  %128 = add nsw i32 %127, 1
  store i32 %128, i32* %8, align 4
  %129 = load i32, i32* %9, align 4
  %130 = add nsw i32 %129, -1
  store i32 %130, i32* %9, align 4
  %131 = load i32, i32* %10, align 4
  %132 = add nsw i32 %131, -1
  store i32 %132, i32* %10, align 4
  br label %42

133:                                              ; preds = %50
  %134 = load i32, i32* %7, align 4
  %135 = load i32, i32* %9, align 4
  %136 = icmp eq i32 %134, %135
  br i1 %136, label %137, label %156

137:                                              ; preds = %133
  %138 = load i32, i32* %8, align 4
  store i32 %138, i32* %12, align 4
  br label %139

139:                                              ; preds = %152, %137
  %140 = load i32, i32* %12, align 4
  %141 = load i32, i32* %10, align 4
  %142 = icmp sle i32 %140, %141
  br i1 %142, label %143, label %155

143:                                              ; preds = %139
  %144 = load i32, i32* %9, align 4
  %145 = sext i32 %144 to i64
  %146 = getelementptr inbounds [100 x [100 x i32]], [100 x [100 x i32]]* %4, i64 0, i64 %145
  %147 = load i32, i32* %12, align 4
  %148 = sext i32 %147 to i64
  %149 = getelementptr inbounds [100 x i32], [100 x i32]* %146, i64 0, i64 %148
  %150 = load i32, i32* %149, align 4
  %151 = call i32 (i8*, ...) @printf(i8* getelementptr inbounds ([4 x i8], [4 x i8]* @.str.2, i64 0, i64 0), i32 %150)
  br label %152

152:                                              ; preds = %143
  %153 = load i32, i32* %12, align 4
  %154 = add nsw i32 %153, 1
  store i32 %154, i32* %12, align 4
  br label %139

155:                                              ; preds = %139
  br label %180

156:                                              ; preds = %133
  %157 = load i32, i32* %8, align 4
  %158 = load i32, i32* %10, align 4
  %159 = icmp eq i32 %157, %158
  br i1 %159, label %160, label %179

160:                                              ; preds = %156
  %161 = load i32, i32* %7, align 4
  store i32 %161, i32* %11, align 4
  br label %162

162:                                              ; preds = %175, %160
  %163 = load i32, i32* %11, align 4
  %164 = load i32, i32* %9, align 4
  %165 = icmp sle i32 %163, %164
  br i1 %165, label %166, label %178

166:                                              ; preds = %162
  %167 = load i32, i32* %11, align 4
  %168 = sext i32 %167 to i64
  %169 = getelementptr inbounds [100 x [100 x i32]], [100 x [100 x i32]]* %4, i64 0, i64 %168
  %170 = load i32, i32* %10, align 4
  %171 = sext i32 %170 to i64
  %172 = getelementptr inbounds [100 x i32], [100 x i32]* %169, i64 0, i64 %171
  %173 = load i32, i32* %172, align 4
  %174 = call i32 (i8*, ...) @printf(i8* getelementptr inbounds ([4 x i8], [4 x i8]* @.str.2, i64 0, i64 0), i32 %173)
  br label %175

175:                                              ; preds = %166
  %176 = load i32, i32* %11, align 4
  %177 = add nsw i32 %176, 1
  store i32 %177, i32* %11, align 4
  br label %162

178:                                              ; preds = %162
  br label %179

179:                                              ; preds = %178, %156
  br label %180

180:                                              ; preds = %179, %155
  ret i32 0
}

declare dso_local i32 @__isoc99_scanf(i8*, ...) #1

declare dso_local i32 @printf(i8*, ...) #1


!llvm.module.flags = !{!0}
!llvm.ident = !{!1}

!0 = !{i32 1, !"wchar_size", i32 4}
!1 = !{!"clang version 10.0.0-4ubuntu1 "}
